target datalayout = "e-m:e-p270:32:32-p271:32:32-p272:64:64-i64:64-i128:128-f80:128-n8:16:32:64-S128"
target triple = "x86_64-pc-linux-gnu"

@show_include_untracked = internal global i32 0, align 4
@show_stat = internal global i32 1, align 4
@show_patch = internal global i32 0, align 4
@.str.160 = private unnamed_addr constant [15 x i8] c"stash.showstat\00", align 1
@.str.161 = private unnamed_addr constant [16 x i8] c"stash.showpatch\00", align 1
@.str.162 = private unnamed_addr constant [27 x i8] c"stash.showincludeuntracked\00", align 1

; Function Attrs: nounwind uwtable
define internal i32 @git_stash_config(ptr noundef %0, ptr noundef %1, ptr noundef %2, ptr noundef %3) #0 {
  %5 = alloca i32, align 4
  %6 = alloca ptr, align 8
  %7 = alloca ptr, align 8
  %8 = alloca ptr, align 8
  %9 = alloca ptr, align 8
  store ptr %0, ptr %6, align 8, !tbaa !11
  store ptr %1, ptr %7, align 8, !tbaa !11
  store ptr %2, ptr %8, align 8, !tbaa !106
  store ptr %3, ptr %9, align 8, !tbaa !15
  %10 = load ptr, ptr %6, align 8, !tbaa !11
  %11 = call i32 @strcmp(ptr noundef %10, ptr noundef @.str.160) #11
  %12 = icmp ne i32 %11, 0
  br i1 %12, label %17, label %13

13:                                               ; preds = %4
  %14 = load ptr, ptr %6, align 8, !tbaa !11
  %15 = load ptr, ptr %7, align 8, !tbaa !11
  %16 = call i32 @git_config_bool(ptr noundef %14, ptr noundef %15)
  store i32 %16, ptr @show_stat, align 4, !tbaa !4
  store i32 0, ptr %5, align 4
  br label %39

17:                                               ; preds = %4
  %18 = load ptr, ptr %6, align 8, !tbaa !11
  %19 = call i32 @strcmp(ptr noundef %18, ptr noundef @.str.161) #11
  %20 = icmp ne i32 %19, 0
  br i1 %20, label %25, label %21

21:                                               ; preds = %17
  %22 = load ptr, ptr %6, align 8, !tbaa !11
  %23 = load ptr, ptr %7, align 8, !tbaa !11
  %24 = call i32 @git_config_bool(ptr noundef %22, ptr noundef %23)
  store i32 %24, ptr @show_patch, align 4, !tbaa !4
  store i32 0, ptr %5, align 4
  br label %39

25:                                               ; preds = %17
  %26 = load ptr, ptr %6, align 8, !tbaa !11
  %27 = call i32 @strcmp(ptr noundef %26, ptr noundef @.str.162) #11
  %28 = icmp ne i32 %27, 0
  br i1 %28, label %33, label %29

29:                                               ; preds = %25
  %30 = load ptr, ptr %6, align 8, !tbaa !11
  %31 = load ptr, ptr %7, align 8, !tbaa !11
  %32 = call i32 @git_config_bool(ptr noundef %30, ptr noundef %31)
  store i32 %32, ptr @show_include_untracked, align 4, !tbaa !4
  store i32 0, ptr %5, align 4
  br label %39

33:                                               ; preds = %25
  %34 = load ptr, ptr %6, align 8, !tbaa !11
  %35 = load ptr, ptr %7, align 8, !tbaa !11
  %36 = load ptr, ptr %8, align 8, !tbaa !106
  %37 = load ptr, ptr %9, align 8, !tbaa !15
  %38 = call i32 @git_diff_basic_config(ptr noundef %34, ptr noundef %35, ptr noundef %36, ptr noundef %37)
  store i32 %38, ptr %5, align 4
  br label %39

39:                                               ; preds = %33, %29, %21, %13
  %40 = load i32, ptr %5, align 4
  ret i32 %40
}