; Function Attrs: nounwind uwtable
define internal i32 @git_stash_config(ptr noundef %0, ptr noundef %1, ptr noundef %2, ptr noundef %3) #0 {
  %5 = tail call i32 @strcmp(ptr noundef nonnull dereferenceable(1) %0, ptr noundef nonnull dereferenceable(15) @.str.160) #17
  %.not = icmp eq i32 %5, 0
  br i1 %.not, label %6, label %8

6:                                                ; preds = %4
  %7 = tail call i32 @git_config_bool(ptr noundef nonnull %0, ptr noundef %1) #15
  store i32 %7, ptr @show_stat, align 4, !tbaa !42
  br label %18

8:                                                ; preds = %4
  %9 = tail call i32 @strcmp(ptr noundef nonnull dereferenceable(1) %0, ptr noundef nonnull dereferenceable(16) @.str.161) #17
  %.not13 = icmp eq i32 %9, 0
  br i1 %.not13, label %10, label %12

10:                                               ; preds = %8
  %11 = tail call i32 @git_config_bool(ptr noundef nonnull %0, ptr noundef %1) #15
  store i32 %11, ptr @show_patch, align 4, !tbaa !42
  br label %18

12:                                               ; preds = %8
  %13 = tail call i32 @strcmp(ptr noundef nonnull dereferenceable(1) %0, ptr noundef nonnull dereferenceable(27) @.str.162) #17
  %.not14 = icmp eq i32 %13, 0
  br i1 %.not14, label %14, label %16

14:                                               ; preds = %12
  %15 = tail call i32 @git_config_bool(ptr noundef nonnull %0, ptr noundef %1) #15
  store i32 %15, ptr @show_include_untracked, align 4, !tbaa !42
  br label %18

16:                                               ; preds = %12
  %17 = tail call i32 @git_diff_basic_config(ptr noundef nonnull %0, ptr noundef %1, ptr noundef %2, ptr noundef %3) #15
  br label %18

18:                                               ; preds = %16, %14, %10, %6
  %.0 = phi i32 [ %17, %16 ], [ 0, %14 ], [ 0, %10 ], [ 0, %6 ]
  ret i32 %.0
}